target datalayout = "e-m:e-p270:32:32-p271:32:32-p272:64:64-i64:64-i128:128-f80:128-n8:16:32:64-S128"
target triple = "x86_64-pc-linux-gnu"

@.str.27 = private unnamed_addr constant [4 x i8] c"TV_\00", align 1
@.str.28 = private unnamed_addr constant [5 x i8] c"flat\00", align 1
@.str.29 = private unnamed_addr constant [3 x i8] c"ne\00", align 1
@.str.30 = private unnamed_addr constant [3 x i8] c"en\00", align 1
@.str.31 = private unnamed_addr constant [4 x i8] c"bfs\00", align 1
@.str.32 = private unnamed_addr constant [4 x i8] c"dfs\00", align 1
@.str.33 = private unnamed_addr constant [4 x i8] c"fwd\00", align 1
@.str.34 = private unnamed_addr constant [4 x i8] c"rev\00", align 1
@.str.35 = private unnamed_addr constant [8 x i8] c"postdfs\00", align 1
@.str.36 = private unnamed_addr constant [8 x i8] c"postfwd\00", align 1
@.str.37 = private unnamed_addr constant [8 x i8] c"postrev\00", align 1
@.str.38 = private unnamed_addr constant [11 x i8] c"prepostdfs\00", align 1
@.str.39 = private unnamed_addr constant [11 x i8] c"prepostfwd\00", align 1
@.str.40 = private unnamed_addr constant [11 x i8] c"prepostrev\00", align 1
@.str.41 = private unnamed_addr constant [38 x i8] c"illegal string \22%s\22 for type tvtype_t\00", align 1

; Function Attrs: inlinehint nounwind uwtable
define internal zeroext i1 @startswith(ptr noundef %0, ptr noundef %1) #4 {
  %3 = alloca ptr, align 8
  %4 = alloca ptr, align 8
  store ptr %0, ptr %3, align 8, !tbaa !7
  store ptr %1, ptr %4, align 8, !tbaa !7
  %5 = load ptr, ptr %3, align 8, !tbaa !7
  %6 = load ptr, ptr %4, align 8, !tbaa !7
  %7 = load ptr, ptr %4, align 8, !tbaa !7
  %8 = call i64 @strlen(ptr noundef %7) #20
  %9 = call i32 @strncmp(ptr noundef %5, ptr noundef %6, i64 noundef %8) #20
  %10 = icmp eq i32 %9, 0
  ret i1 %10
}

; Function Attrs: nounwind uwtable
define internal i32 @strToTvtype(ptr noundef %0) #0 {
  %2 = alloca ptr, align 8
  %3 = alloca i32, align 4
  %4 = alloca ptr, align 8
  store ptr %0, ptr %2, align 8, !tbaa !7
  call void @llvm.lifetime.start.p0(i64 4, ptr %3) #16
  store i32 0, ptr %3, align 4, !tbaa !26
  call void @llvm.lifetime.start.p0(i64 8, ptr %4) #16
  %5 = load ptr, ptr %2, align 8, !tbaa !7
  %6 = call zeroext i1 @startswith(ptr noundef %5, ptr noundef @.str.27)
  br i1 %6, label %7, label %89

7:                                                ; preds = %1
  %8 = load ptr, ptr %2, align 8, !tbaa !7
  %9 = getelementptr inbounds i8, ptr %8, i64 3
  store ptr %9, ptr %4, align 8, !tbaa !7
  %10 = load ptr, ptr %4, align 8, !tbaa !7
  %11 = call i32 @strcmp(ptr noundef %10, ptr noundef @.str.28) #20
  %12 = icmp ne i32 %11, 0
  br i1 %12, label %14, label %13

13:                                               ; preds = %7
  store i32 0, ptr %3, align 4, !tbaa !26
  br label %88

14:                                               ; preds = %7
  %15 = load ptr, ptr %4, align 8, !tbaa !7
  %16 = call i32 @strcmp(ptr noundef %15, ptr noundef @.str.29) #20
  %17 = icmp ne i32 %16, 0
  br i1 %17, label %19, label %18

18:                                               ; preds = %14
  store i32 1, ptr %3, align 4, !tbaa !26
  br label %87

19:                                               ; preds = %14
  %20 = load ptr, ptr %4, align 8, !tbaa !7
  %21 = call i32 @strcmp(ptr noundef %20, ptr noundef @.str.30) #20
  %22 = icmp ne i32 %21, 0
  br i1 %22, label %24, label %23

23:                                               ; preds = %19
  store i32 2, ptr %3, align 4, !tbaa !26
  br label %86

24:                                               ; preds = %19
  %25 = load ptr, ptr %4, align 8, !tbaa !7
  %26 = call i32 @strcmp(ptr noundef %25, ptr noundef @.str.31) #20
  %27 = icmp ne i32 %26, 0
  br i1 %27, label %29, label %28

28:                                               ; preds = %24
  store i32 3, ptr %3, align 4, !tbaa !26
  br label %85

29:                                               ; preds = %24
  %30 = load ptr, ptr %4, align 8, !tbaa !7
  %31 = call i32 @strcmp(ptr noundef %30, ptr noundef @.str.32) #20
  %32 = icmp ne i32 %31, 0
  br i1 %32, label %34, label %33

33:                                               ; preds = %29
  store i32 4, ptr %3, align 4, !tbaa !26
  br label %84

34:                                               ; preds = %29
  %35 = load ptr, ptr %4, align 8, !tbaa !7
  %36 = call i32 @strcmp(ptr noundef %35, ptr noundef @.str.33) #20
  %37 = icmp ne i32 %36, 0
  br i1 %37, label %39, label %38

38:                                               ; preds = %34
  store i32 5, ptr %3, align 4, !tbaa !26
  br label %83

39:                                               ; preds = %34
  %40 = load ptr, ptr %4, align 8, !tbaa !7
  %41 = call i32 @strcmp(ptr noundef %40, ptr noundef @.str.34) #20
  %42 = icmp ne i32 %41, 0
  br i1 %42, label %44, label %43

43:                                               ; preds = %39
  store i32 6, ptr %3, align 4, !tbaa !26
  br label %82

44:                                               ; preds = %39
  %45 = load ptr, ptr %4, align 8, !tbaa !7
  %46 = call i32 @strcmp(ptr noundef %45, ptr noundef @.str.35) #20
  %47 = icmp ne i32 %46, 0
  br i1 %47, label %49, label %48

48:                                               ; preds = %44
  store i32 7, ptr %3, align 4, !tbaa !26
  br label %81

49:                                               ; preds = %44
  %50 = load ptr, ptr %4, align 8, !tbaa !7
  %51 = call i32 @strcmp(ptr noundef %50, ptr noundef @.str.36) #20
  %52 = icmp ne i32 %51, 0
  br i1 %52, label %54, label %53

53:                                               ; preds = %49
  store i32 8, ptr %3, align 4, !tbaa !26
  br label %80

54:                                               ; preds = %49
  %55 = load ptr, ptr %4, align 8, !tbaa !7
  %56 = call i32 @strcmp(ptr noundef %55, ptr noundef @.str.37) #20
  %57 = icmp ne i32 %56, 0
  br i1 %57, label %59, label %58

58:                                               ; preds = %54
  store i32 9, ptr %3, align 4, !tbaa !26
  br label %79

59:                                               ; preds = %54
  %60 = load ptr, ptr %4, align 8, !tbaa !7
  %61 = call i32 @strcmp(ptr noundef %60, ptr noundef @.str.38) #20
  %62 = icmp ne i32 %61, 0
  br i1 %62, label %64, label %63

63:                                               ; preds = %59
  store i32 10, ptr %3, align 4, !tbaa !26
  br label %78

64:                                               ; preds = %59
  %65 = load ptr, ptr %4, align 8, !tbaa !7
  %66 = call i32 @strcmp(ptr noundef %65, ptr noundef @.str.39) #20
  %67 = icmp ne i32 %66, 0
  br i1 %67, label %69, label %68

68:                                               ; preds = %64
  store i32 11, ptr %3, align 4, !tbaa !26
  br label %77

69:                                               ; preds = %64
  %70 = load ptr, ptr %4, align 8, !tbaa !7
  %71 = call i32 @strcmp(ptr noundef %70, ptr noundef @.str.40) #20
  %72 = icmp ne i32 %71, 0
  br i1 %72, label %74, label %73

73:                                               ; preds = %69
  store i32 12, ptr %3, align 4, !tbaa !26
  br label %76

74:                                               ; preds = %69
  %75 = load ptr, ptr %2, align 8, !tbaa !7
  call void (ptr, ...) @exerror(ptr noundef @.str.41, ptr noundef %75)
  br label %76

76:                                               ; preds = %74, %73
  br label %77

77:                                               ; preds = %76, %68
  br label %78

78:                                               ; preds = %77, %63
  br label %79

79:                                               ; preds = %78, %58
  br label %80

80:                                               ; preds = %79, %53
  br label %81

81:                                               ; preds = %80, %48
  br label %82

82:                                               ; preds = %81, %43
  br label %83

83:                                               ; preds = %82, %38
  br label %84

84:                                               ; preds = %83, %33
  br label %85

85:                                               ; preds = %84, %28
  br label %86

86:                                               ; preds = %85, %23
  br label %87

87:                                               ; preds = %86, %18
  br label %88

88:                                               ; preds = %87, %13
  br label %91

89:                                               ; preds = %1
  %90 = load ptr, ptr %2, align 8, !tbaa !7
  call void (ptr, ...) @exerror(ptr noundef @.str.41, ptr noundef %90)
  br label %91

91:                                               ; preds = %89, %88
  %92 = load i32, ptr %3, align 4, !tbaa !26
  call void @llvm.lifetime.end.p0(i64 8, ptr %4) #16
  call void @llvm.lifetime.end.p0(i64 4, ptr %3) #16
  ret i32 %92
}