; Function Attrs: nounwind uwtable
define internal fastcc range(i32 0, 13) i32 @strToTvtype(ptr noundef %0) unnamed_addr #0 {
  %2 = load i8, ptr %0, align 1
  %.not.i = icmp eq i8 %2, 84
  br i1 %.not.i, label %sub_1.i, label %.sink.split

sub_1.i:                                          ; preds = %1
  %3 = getelementptr inbounds nuw i8, ptr %0, i64 1
  %4 = load i8, ptr %3, align 1
  %.not1.i = icmp eq i8 %4, 86
  br i1 %.not1.i, label %startswith.exit, label %.sink.split

startswith.exit:                                  ; preds = %sub_1.i
  %5 = getelementptr inbounds nuw i8, ptr %0, i64 2
  %6 = load i8, ptr %5, align 1
  %7 = icmp eq i8 %6, 95
  br i1 %7, label %8, label %.sink.split

8:                                                ; preds = %startswith.exit
  %9 = getelementptr inbounds nuw i8, ptr %0, i64 3
  %10 = tail call i32 @strcmp(ptr noundef nonnull dereferenceable(1) %9, ptr noundef nonnull dereferenceable(5) @.str.28) #28
  %.not = icmp eq i32 %10, 0
  br i1 %.not, label %41, label %sub_0

sub_0:                                            ; preds = %8
  %11 = load i8, ptr %9, align 1
  switch i8 %11, label %.tail29.thread [
    i8 110, label %sub_1
    i8 101, label %sub_131
  ]

sub_1:                                            ; preds = %sub_0
  %12 = getelementptr inbounds nuw i8, ptr %0, i64 4
  %13 = load i8, ptr %12, align 1
  %.not35 = icmp eq i8 %13, 101
  br i1 %.not35, label %.tail, label %.tail29.thread

.tail:                                            ; preds = %sub_1
  %14 = getelementptr inbounds nuw i8, ptr %0, i64 5
  %15 = load i8, ptr %14, align 1
  %16 = icmp eq i8 %15, 0
  br i1 %16, label %41, label %.tail29.thread

sub_131:                                          ; preds = %sub_0
  %17 = getelementptr inbounds nuw i8, ptr %0, i64 4
  %18 = load i8, ptr %17, align 1
  %.not37 = icmp eq i8 %18, 110
  br i1 %.not37, label %.tail29, label %.tail29.thread

.tail29:                                          ; preds = %sub_131
  %19 = getelementptr inbounds nuw i8, ptr %0, i64 5
  %20 = load i8, ptr %19, align 1
  %21 = icmp eq i8 %20, 0
  br i1 %21, label %41, label %.tail29.thread

.tail29.thread:                                   ; preds = %sub_0, %.tail, %sub_1, %sub_131, %.tail29
  %22 = tail call i32 @strcmp(ptr noundef nonnull dereferenceable(1) %9, ptr noundef nonnull dereferenceable(4) @.str.31) #28
  %.not19 = icmp eq i32 %22, 0
  br i1 %.not19, label %41, label %23

23:                                               ; preds = %.tail29.thread
  %24 = tail call i32 @strcmp(ptr noundef nonnull dereferenceable(1) %9, ptr noundef nonnull dereferenceable(4) @.str.32) #28
  %.not20 = icmp eq i32 %24, 0
  br i1 %.not20, label %41, label %25

25:                                               ; preds = %23
  %26 = tail call i32 @strcmp(ptr noundef nonnull dereferenceable(1) %9, ptr noundef nonnull dereferenceable(4) @.str.33) #28
  %.not21 = icmp eq i32 %26, 0
  br i1 %.not21, label %41, label %27

27:                                               ; preds = %25
  %28 = tail call i32 @strcmp(ptr noundef nonnull dereferenceable(1) %9, ptr noundef nonnull dereferenceable(4) @.str.34) #28
  %.not22 = icmp eq i32 %28, 0
  br i1 %.not22, label %41, label %29

29:                                               ; preds = %27
  %30 = tail call i32 @strcmp(ptr noundef nonnull dereferenceable(1) %9, ptr noundef nonnull dereferenceable(8) @.str.35) #28
  %.not23 = icmp eq i32 %30, 0
  br i1 %.not23, label %41, label %31

31:                                               ; preds = %29
  %32 = tail call i32 @strcmp(ptr noundef nonnull dereferenceable(1) %9, ptr noundef nonnull dereferenceable(8) @.str.36) #28
  %.not24 = icmp eq i32 %32, 0
  br i1 %.not24, label %41, label %33

33:                                               ; preds = %31
  %34 = tail call i32 @strcmp(ptr noundef nonnull dereferenceable(1) %9, ptr noundef nonnull dereferenceable(8) @.str.37) #28
  %.not25 = icmp eq i32 %34, 0
  br i1 %.not25, label %41, label %35

35:                                               ; preds = %33
  %36 = tail call i32 @strcmp(ptr noundef nonnull dereferenceable(1) %9, ptr noundef nonnull dereferenceable(11) @.str.38) #28
  %.not26 = icmp eq i32 %36, 0
  br i1 %.not26, label %41, label %37

37:                                               ; preds = %35
  %38 = tail call i32 @strcmp(ptr noundef nonnull dereferenceable(1) %9, ptr noundef nonnull dereferenceable(11) @.str.39) #28
  %.not27 = icmp eq i32 %38, 0
  br i1 %.not27, label %41, label %39

39:                                               ; preds = %37
  %40 = tail call i32 @strcmp(ptr noundef nonnull dereferenceable(1) %9, ptr noundef nonnull dereferenceable(11) @.str.40) #28
  %.not28 = icmp eq i32 %40, 0
  br i1 %.not28, label %41, label %.sink.split

.sink.split:                                      ; preds = %startswith.exit, %1, %sub_1.i, %39
  tail call void (ptr, ...) @exerror(ptr noundef nonnull @.str.41, ptr noundef nonnull %0) #25
  br label %41

41:                                               ; preds = %.sink.split, %39, %37, %35, %33, %31, %29, %27, %25, %23, %.tail29.thread, %.tail29, %.tail, %8
  %.0 = phi i32 [ 0, %8 ], [ 1, %.tail ], [ 2, %.tail29 ], [ 3, %.tail29.thread ], [ 4, %23 ], [ 5, %25 ], [ 6, %27 ], [ 7, %29 ], [ 8, %31 ], [ 9, %33 ], [ 10, %35 ], [ 11, %37 ], [ 12, %39 ], [ 0, %.sink.split ]
  ret i32 %.0
}